; Function Attrs: mustprogress nofree norecurse nosync nounwind memory(readwrite, argmem: write, inaccessiblemem: none) uwtable
define void @_ZN6GLArea9updateFpsEf(ptr nocapture noundef nonnull writeonly align 8 dereferenceable(1676) %0, float noundef %1) local_unnamed_addr #17 align 2 {
  %3 = fcmp ogt float %1, 0.000000e+00
  br i1 %3, label %4, label %.preheader

4:                                                ; preds = %2
  %5 = load i32, ptr @_ZZN6GLArea9updateFpsEfE1j, align 4
  %6 = zext nneg i32 %5 to i64
  %7 = getelementptr inbounds [10 x float], ptr @_ZZN6GLArea9updateFpsEfE9fpsVector, i64 0, i64 %6
  store float %1, ptr %7, align 4
  %8 = add nuw nsw i32 %5, 1
  %9 = urem i32 %8, 10
  store i32 %9, ptr @_ZZN6GLArea9updateFpsEfE1j, align 4
  br label %.preheader

.preheader:                                       ; preds = %4, %2
  br label %10

10:                                               ; preds = %.preheader, %10
  %indvars.iv = phi i64 [ %indvars.iv.next, %10 ], [ 0, %.preheader ]
  %.0810 = phi float [ %13, %10 ], [ 0.000000e+00, %.preheader ]
  %11 = getelementptr inbounds [10 x float], ptr @_ZZN6GLArea9updateFpsEfE9fpsVector, i64 0, i64 %indvars.iv
  %12 = load float, ptr %11, align 4
  %13 = fadd float %.0810, %12
  %indvars.iv.next = add nuw nsw i64 %indvars.iv, 1
  %exitcond.not = icmp eq i64 %indvars.iv.next, 10
  br i1 %exitcond.not, label %14, label %10, !llvm.loop !73

14:                                               ; preds = %10
  %15 = fdiv float %13, 1.000000e+01
  %16 = fdiv float 1.000000e+03, %15
  %17 = getelementptr inbounds i8, ptr %0, i64 1576
  store float %16, ptr %17, align 8
  %18 = getelementptr inbounds i8, ptr %0, i64 1580
  store float %1, ptr %18, align 4
  ret void
}